
Memory Configuration

Name             Origin             Length             Attributes
ram              0x00008000         0x01000000
*default*        0x00000000         0xffffffff

Linker script and memory map

LOAD build/vectors.o
LOAD build/boot_main.o
LOAD build/boot_uart.o
LOAD build/bootloader07.o

.text           0x00008000   0x1f8450
 *(.text*)
 .text          0x00008000   0x1f8020 build/vectors.o
                0x00008000                _start
                0x0020000c                PUT32
                0x00200014                GETPC
                0x0020001c                BRANCHTO
 .text          0x00200020       0x30 build/boot_main.o
                0x00200020                boot_main
 .text          0x00200050      0x210 build/boot_uart.o
                0x00200050                boot_wait_for_tx_slot
                0x00200068                boot_wait_for_uart_idle
                0x00200080                boot_wait_for_rx_slot
                0x00200098                boot_wait_for_rx_has_char
                0x002000b0                boot_delay
                0x002000e4                boot_uart_init
                0x002001b4                boot_uart_recv
                0x002001e8                boot_uart_send
                0x00200220                boot_uart_send_string
 .text          0x00200260      0x1f0 build/bootloader07.o
                0x00200260                startBootLoader

.rodata.str1.4  0x00200450       0x38
 .rodata.str1.4
                0x00200450       0x10 build/boot_main.o
 .rodata.str1.4
                0x00200460       0x28 build/bootloader07.o

.data           0x00200488        0x0
 .data          0x00200488        0x0 build/vectors.o
 .data          0x00200488        0x0 build/boot_main.o
 .data          0x00200488        0x0 build/boot_uart.o
 .data          0x00200488        0x0 build/bootloader07.o

.igot.plt       0x00200488        0x0
 .igot.plt      0x00200488        0x0 build/vectors.o

.glue_7         0x00200488        0x0
 .glue_7        0x00200488        0x0 linker stubs

.glue_7t        0x00200488        0x0
 .glue_7t       0x00200488        0x0 linker stubs

.vfp11_veneer   0x00200488        0x0
 .vfp11_veneer  0x00200488        0x0 linker stubs

.v4_bx          0x00200488        0x0
 .v4_bx         0x00200488        0x0 linker stubs

.iplt           0x00200488        0x0
 .iplt          0x00200488        0x0 build/vectors.o

.rel.dyn        0x00200488        0x0
 .rel.iplt      0x00200488        0x0 build/vectors.o

.bss            0x00200488        0x0
 *(.bss*)
 .bss           0x00200488        0x0 build/vectors.o
 .bss           0x00200488        0x0 build/boot_main.o
 .bss           0x00200488        0x0 build/boot_uart.o
 .bss           0x00200488        0x0 build/bootloader07.o
OUTPUT(build/output.elf elf32-littlearm)

.ARM.attributes
                0x00000000       0x2f
 .ARM.attributes
                0x00000000       0x16 build/vectors.o
 .ARM.attributes
                0x00000016       0x33 build/boot_main.o
 .ARM.attributes
                0x00000049       0x33 build/boot_uart.o
 .ARM.attributes
                0x0000007c       0x33 build/bootloader07.o

.comment        0x00000000       0x2d
 .comment       0x00000000       0x2d build/boot_main.o
                                 0x2e (size before relaxing)
 .comment       0x0000002d       0x2e build/boot_uart.o
 .comment       0x0000002d       0x2e build/bootloader07.o
