   1              		.arch armv8-a
   2              		.fpu softvfp
   3              		.eabi_attribute 20, 1
   4              		.eabi_attribute 21, 1
   5              		.eabi_attribute 23, 3
   6              		.eabi_attribute 24, 1
   7              		.eabi_attribute 25, 1
   8              		.eabi_attribute 26, 1
   9              		.eabi_attribute 30, 2
  10              		.eabi_attribute 34, 1
  11              		.eabi_attribute 18, 4
  12              		.file	"boot_uart.c"
  13              		.text
  14              		.align	2
  15              		.global	boot_wait_for_tx_slot
  16              		.syntax unified
  17              		.arm
  19              	boot_wait_for_tx_slot:
  20              		@ args = 0, pretend = 0, frame = 0
  21              		@ frame_needed = 0, uses_anonymous_args = 0
  22              		@ link register save eliminated.
  23 0000 012AA0E3 		mov	r2, #4096
  24 0004 202F43E3 		movt	r2, 16160
  25              	.L2:
  26 0008 183092E5 		ldr	r3, [r2, #24]
  27 000c 200013E3 		tst	r3, #32
  28 0010 FCFFFF1A 		bne	.L2
  29 0014 1EFF2FE1 		bx	lr
  31              		.align	2
  32              		.global	boot_wait_for_uart_idle
  33              		.syntax unified
  34              		.arm
  36              	boot_wait_for_uart_idle:
  37              		@ args = 0, pretend = 0, frame = 0
  38              		@ frame_needed = 0, uses_anonymous_args = 0
  39              		@ link register save eliminated.
  40 0018 012AA0E3 		mov	r2, #4096
  41 001c 202F43E3 		movt	r2, 16160
  42              	.L6:
  43 0020 183092E5 		ldr	r3, [r2, #24]
  44 0024 080013E3 		tst	r3, #8
  45 0028 FCFFFF1A 		bne	.L6
  46 002c 1EFF2FE1 		bx	lr
  48              		.align	2
  49              		.global	boot_wait_for_rx_slot
  50              		.syntax unified
  51              		.arm
  53              	boot_wait_for_rx_slot:
  54              		@ args = 0, pretend = 0, frame = 0
  55              		@ frame_needed = 0, uses_anonymous_args = 0
  56              		@ link register save eliminated.
  57 0030 012AA0E3 		mov	r2, #4096
  58 0034 202F43E3 		movt	r2, 16160
  59              	.L9:
  60 0038 183092E5 		ldr	r3, [r2, #24]
  61 003c 400013E3 		tst	r3, #64
  62 0040 FCFFFF1A 		bne	.L9
  63 0044 1EFF2FE1 		bx	lr
  65              		.align	2
  66              		.global	boot_wait_for_rx_has_char
  67              		.syntax unified
  68              		.arm
  70              	boot_wait_for_rx_has_char:
  71              		@ args = 0, pretend = 0, frame = 0
  72              		@ frame_needed = 0, uses_anonymous_args = 0
  73              		@ link register save eliminated.
  74 0048 012AA0E3 		mov	r2, #4096
  75 004c 202F43E3 		movt	r2, 16160
  76              	.L12:
  77 0050 183092E5 		ldr	r3, [r2, #24]
  78 0054 100013E3 		tst	r3, #16
  79 0058 FCFFFF1A 		bne	.L12
  80 005c 1EFF2FE1 		bx	lr
  82              		.align	2
  83              		.global	boot_delay
  84              		.syntax unified
  85              		.arm
  87              	boot_delay:
  88              		@ args = 0, pretend = 0, frame = 8
  89              		@ frame_needed = 0, uses_anonymous_args = 0
  90              		@ link register save eliminated.
  91 0060 08D04DE2 		sub	sp, sp, #8
  92 0064 04008DE5 		str	r0, [sp, #4]
  93 0068 04309DE5 		ldr	r3, [sp, #4]
  94 006c 000053E3 		cmp	r3, #0
  95 0070 0500000A 		beq	.L14
  96              	.L17:
  97 0074 04309DE5 		ldr	r3, [sp, #4]
  98 0078 013043E2 		sub	r3, r3, #1
  99 007c 04308DE5 		str	r3, [sp, #4]
 100 0080 04309DE5 		ldr	r3, [sp, #4]
 101 0084 000053E3 		cmp	r3, #0
 102 0088 F9FFFF1A 		bne	.L17
 103              	.L14:
 104 008c 08D08DE2 		add	sp, sp, #8
 105              		@ sp needed
 106 0090 1EFF2FE1 		bx	lr
 108              		.align	2
 109              		.global	boot_uart_init
 110              		.syntax unified
 111              		.arm
 113              	boot_uart_init:
 114              		@ args = 0, pretend = 0, frame = 0
 115              		@ frame_needed = 0, uses_anonymous_args = 0
 116 0094 0020A0E3 		mov	r2, #0
 117 0098 202F43E3 		movt	r2, 16160
 118 009c 013AA0E3 		mov	r3, #4096
 119 00a0 203F43E3 		movt	r3, 16160
 120 00a4 00C0A0E3 		mov	ip, #0
 121 00a8 0310A0E1 		mov	r1, r3
 122 00ac 040092E5 		ldr	r0, [r2, #4]
 123 00b0 090980E3 		orr	r0, r0, #147456
 124 00b4 040082E5 		str	r0, [r2, #4]
 125 00b8 30C083E5 		str	ip, [r3, #48]
 126              	.L21:
 127 00bc 183091E5 		ldr	r3, [r1, #24]
 128 00c0 083013E2 		ands	r3, r3, #8
 129 00c4 FCFFFF1A 		bne	.L21
 130 00c8 0000A0E3 		mov	r0, #0
 131 00cc 200F43E3 		movt	r0, 16160
 132 00d0 2CC091E5 		ldr	ip, [r1, #44]
 133 00d4 9620A0E3 		mov	r2, #150
 134 00d8 2CC081E5 		str	ip, [r1, #44]
 135 00dc 943080E5 		str	r3, [r0, #148]
 136              	.L22:
 137 00e0 012052E2 		subs	r2, r2, #1
 138 00e4 FDFFFF1A 		bne	.L22
 139 00e8 0020A0E3 		mov	r2, #0
 140 00ec 202F43E3 		movt	r2, 16160
 141 00f0 0319A0E3 		mov	r1, #49152
 142 00f4 9630A0E3 		mov	r3, #150
 143 00f8 981082E5 		str	r1, [r2, #152]
 144              	.L23:
 145 00fc 013053E2 		subs	r3, r3, #1
 146 0100 FDFFFF1A 		bne	.L23
 147 0104 0010A0E3 		mov	r1, #0
 148 0108 201F43E3 		movt	r1, 16160
 149 010c 012AA0E3 		mov	r2, #4096
 150 0110 202F43E3 		movt	r2, 16160
 151 0114 04E02DE5 		str	lr, [sp, #-4]!
 152 0118 0100A0E3 		mov	r0, #1
 153 011c FFE700E3 		movw	lr, #2047
 154 0120 1AC0A0E3 		mov	ip, #26
 155 0124 983081E5 		str	r3, [r1, #152]
 156 0128 44E082E5 		str	lr, [r2, #68]
 157 012c 24C082E5 		str	ip, [r2, #36]
 158 0130 280082E5 		str	r0, [r2, #40]
 159 0134 2C3092E5 		ldr	r3, [r2, #44]
 160 0138 703083E3 		orr	r3, r3, #112
 161 013c 2C3082E5 		str	r3, [r2, #44]
 162 0140 383092E5 		ldr	r3, [r2, #56]
 163 0144 7F3E83E3 		orr	r3, r3, #2032
 164 0148 023083E3 		orr	r3, r3, #2
 165 014c 383082E5 		str	r3, [r2, #56]
 166 0150 303092E5 		ldr	r3, [r2, #48]
 167 0154 033C83E3 		orr	r3, r3, #768
 168 0158 003083E1 		orr	r3, r3, r0
 169 015c 303082E5 		str	r3, [r2, #48]
 170 0160 04F09DE4 		ldr	pc, [sp], #4
 172              		.align	2
 173              		.global	boot_uart_recv
 174              		.syntax unified
 175              		.arm
 177              	boot_uart_recv:
 178              		@ args = 0, pretend = 0, frame = 0
 179              		@ frame_needed = 0, uses_anonymous_args = 0
 180              		@ link register save eliminated.
 181 0164 012AA0E3 		mov	r2, #4096
 182 0168 202F43E3 		movt	r2, 16160
 183              	.L35:
 184 016c 183092E5 		ldr	r3, [r2, #24]
 185 0170 100013E3 		tst	r3, #16
 186 0174 FCFFFF1A 		bne	.L35
 187 0178 9630A0E3 		mov	r3, #150
 188              	.L36:
 189 017c 013053E2 		subs	r3, r3, #1
 190 0180 FDFFFF1A 		bne	.L36
 191 0184 013AA0E3 		mov	r3, #4096
 192 0188 203F43E3 		movt	r3, 16160
 193 018c 000093E5 		ldr	r0, [r3]
 194 0190 7000EFE6 		uxtb	r0, r0
 195 0194 1EFF2FE1 		bx	lr
 197              		.align	2
 198              		.global	boot_uart_send
 199              		.syntax unified
 200              		.arm
 202              	boot_uart_send:
 203              		@ args = 0, pretend = 0, frame = 0
 204              		@ frame_needed = 0, uses_anonymous_args = 0
 205              		@ link register save eliminated.
 206 0198 012AA0E3 		mov	r2, #4096
 207 019c 202F43E3 		movt	r2, 16160
 208              	.L43:
 209 01a0 183092E5 		ldr	r3, [r2, #24]
 210 01a4 200013E3 		tst	r3, #32
 211 01a8 FCFFFF1A 		bne	.L43
 212 01ac 9630A0E3 		mov	r3, #150
 213              	.L44:
 214 01b0 013053E2 		subs	r3, r3, #1
 215 01b4 FDFFFF1A 		bne	.L44
 216 01b8 013AA0E3 		mov	r3, #4096
 217 01bc 203F43E3 		movt	r3, 16160
 218 01c0 7000EFE6 		uxtb	r0, r0
 219 01c4 002093E5 		ldr	r2, [r3]
 220 01c8 000083E5 		str	r0, [r3]
 221 01cc 1EFF2FE1 		bx	lr
 223              		.align	2
 224              		.global	boot_uart_send_string
 225              		.syntax unified
 226              		.arm
 228              	boot_uart_send_string:
 229              		@ args = 0, pretend = 0, frame = 0
 230              		@ frame_needed = 0, uses_anonymous_args = 0
 231 01d0 10402DE9 		push	{r4, lr}
 232 01d4 0030D0E5 		ldrb	r3, [r0]	@ zero_extendqisi2
 233 01d8 000053E3 		cmp	r3, #0
 234 01dc 0300000A 		beq	.L52
 235 01e0 011040E2 		sub	r1, r0, #1
 236              	.L53:
 237 01e4 0100F1E5 		ldrb	r0, [r1, #1]!	@ zero_extendqisi2
 238 01e8 000050E3 		cmp	r0, #0
 239 01ec 0500001A 		bne	.L63
 240              	.L52:
 241 01f0 013AA0E3 		mov	r3, #4096
 242 01f4 203F43E3 		movt	r3, 16160
 243              	.L54:
 244 01f8 182093E5 		ldr	r2, [r3, #24]
 245 01fc 080012E3 		tst	r2, #8
 246 0200 FCFFFF1A 		bne	.L54
 247 0204 1080BDE8 		pop	{r4, pc}
 248              	.L63:
 249 0208 FEFFFFEB 		bl	boot_uart_send
 250 020c F4FFFFEA 		b	.L53
 252              		.ident	"GCC: (Linaro GCC 5.3-2016.02) 5.3.1 20160113"
